target datalayout = "e-m:e-p270:32:32-p271:32:32-p272:64:64-i64:64-i128:128-f80:128-n8:16:32:64-S128"
target triple = "x86_64-pc-linux-gnu"

%struct.PlanState = type { i32, ptr, ptr, ptr, ptr, ptr, ptr, ptr, ptr, ptr, ptr, ptr, ptr, ptr, ptr, ptr, ptr, ptr, i8, ptr, ptr, ptr, ptr, ptr, i8, i8, i8, i8, i8, i8, i8, i8 }
%struct.BitmapHeapScanState = type { %struct.ScanState, ptr, ptr, i32, %struct.BitmapHeapScanInstrumentation, %struct.TBMIterator, i32, i32, i32, i8, ptr, ptr, i8, i32, i32 }
%struct.ScanState = type { %struct.PlanState, ptr, ptr, ptr }
%struct.BitmapHeapScanInstrumentation = type { i64, i64 }
%struct.TBMIterator = type { i8, %union.anon }
%union.anon = type { ptr }
%struct.SharedBitmapHeapInstrumentation = type { i32, [0 x %struct.BitmapHeapScanInstrumentation] }
%struct.Plan = type { i32, i32, double, double, double, i32, i8, i8, i8, i32, ptr, ptr, ptr, ptr, ptr, ptr, ptr }
%struct.ParallelContext = type { %struct.dlist_node, i32, i32, i32, i32, ptr, ptr, ptr, %struct.shm_toc_estimator, ptr, ptr, ptr, ptr, i32, ptr }
%struct.dlist_node = type { ptr, ptr }
%struct.shm_toc_estimator = type { i64, i64 }
%struct.EState = type { i32, i32, ptr, ptr, ptr, i32, ptr, ptr, ptr, ptr, ptr, ptr, ptr, ptr, ptr, ptr, i32, ptr, ptr, ptr, ptr, ptr, ptr, ptr, ptr, ptr, ptr, i64, i64, i32, i32, i8, ptr, ptr, ptr, ptr, ptr, i8, i32, i32, ptr, i32, ptr, ptr, ptr, ptr }
%struct.ParallelBitmapHeapState = type { i64, i64, i8, i32, i32, i32, %struct.ConditionVariable }
%struct.ConditionVariable = type { i8, %struct.proclist_head }
%struct.proclist_head = type { i32, i32 }

; Function Attrs: nounwind uwtable
define dso_local void @ExecBitmapHeapInitializeDSM(ptr noundef %0, ptr noundef %1) #0 {
  %3 = alloca ptr, align 8
  %4 = alloca ptr, align 8
  %5 = alloca ptr, align 8
  %6 = alloca ptr, align 8
  %7 = alloca ptr, align 8
  %8 = alloca ptr, align 8
  %9 = alloca i64, align 8
  %10 = alloca i32, align 4
  store ptr %0, ptr %3, align 8
  store ptr %1, ptr %4, align 8
  call void @llvm.lifetime.start.p0(i64 8, ptr %5) #8
  call void @llvm.lifetime.start.p0(i64 8, ptr %6) #8
  store ptr null, ptr %6, align 8
  call void @llvm.lifetime.start.p0(i64 8, ptr %7) #8
  %11 = load ptr, ptr %3, align 8
  %12 = getelementptr inbounds nuw %struct.BitmapHeapScanState, ptr %11, i32 0, i32 0
  %13 = getelementptr inbounds nuw %struct.ScanState, ptr %12, i32 0, i32 0
  %14 = getelementptr inbounds nuw %struct.PlanState, ptr %13, i32 0, i32 2
  %15 = load ptr, ptr %14, align 8
  %16 = getelementptr inbounds nuw %struct.EState, ptr %15, i32 0, i32 40
  %17 = load ptr, ptr %16, align 8
  store ptr %17, ptr %7, align 8
  call void @llvm.lifetime.start.p0(i64 8, ptr %8) #8
  call void @llvm.lifetime.start.p0(i64 8, ptr %9) #8
  %18 = load ptr, ptr %7, align 8
  %19 = icmp eq ptr %18, null
  br i1 %19, label %20, label %21

20:                                               ; preds = %2
  store i32 1, ptr %10, align 4
  br label %118

21:                                               ; preds = %2
  store i64 48, ptr %9, align 8
  %22 = load ptr, ptr %3, align 8
  %23 = getelementptr inbounds nuw %struct.BitmapHeapScanState, ptr %22, i32 0, i32 0
  %24 = getelementptr inbounds nuw %struct.ScanState, ptr %23, i32 0, i32 0
  %25 = getelementptr inbounds nuw %struct.PlanState, ptr %24, i32 0, i32 5
  %26 = load ptr, ptr %25, align 8
  %27 = icmp ne ptr %26, null
  br i1 %27, label %28, label %43

28:                                               ; preds = %21
  %29 = load ptr, ptr %4, align 8
  %30 = getelementptr inbounds nuw %struct.ParallelContext, ptr %29, i32 0, i32 2
  %31 = load i32, ptr %30, align 4
  %32 = icmp sgt i32 %31, 0
  br i1 %32, label %33, label %43

33:                                               ; preds = %28
  %34 = load i64, ptr %9, align 8
  %35 = call i64 @add_size(i64 noundef %34, i64 noundef 8)
  store i64 %35, ptr %9, align 8
  %36 = load i64, ptr %9, align 8
  %37 = load ptr, ptr %4, align 8
  %38 = getelementptr inbounds nuw %struct.ParallelContext, ptr %37, i32 0, i32 2
  %39 = load i32, ptr %38, align 4
  %40 = sext i32 %39 to i64
  %41 = call i64 @mul_size(i64 noundef %40, i64 noundef 16)
  %42 = call i64 @add_size(i64 noundef %36, i64 noundef %41)
  store i64 %42, ptr %9, align 8
  br label %43

43:                                               ; preds = %33, %28, %21
  %44 = load ptr, ptr %4, align 8
  %45 = getelementptr inbounds nuw %struct.ParallelContext, ptr %44, i32 0, i32 11
  %46 = load ptr, ptr %45, align 8
  %47 = load i64, ptr %9, align 8
  %48 = call ptr @shm_toc_allocate(ptr noundef %46, i64 noundef %47)
  store ptr %48, ptr %8, align 8
  %49 = load ptr, ptr %8, align 8
  store ptr %49, ptr %5, align 8
  %50 = load ptr, ptr %8, align 8
  %51 = getelementptr inbounds nuw i8, ptr %50, i64 48
  store ptr %51, ptr %8, align 8
  %52 = load ptr, ptr %3, align 8
  %53 = getelementptr inbounds nuw %struct.BitmapHeapScanState, ptr %52, i32 0, i32 0
  %54 = getelementptr inbounds nuw %struct.ScanState, ptr %53, i32 0, i32 0
  %55 = getelementptr inbounds nuw %struct.PlanState, ptr %54, i32 0, i32 5
  %56 = load ptr, ptr %55, align 8
  %57 = icmp ne ptr %56, null
  br i1 %57, label %58, label %65

58:                                               ; preds = %43
  %59 = load ptr, ptr %4, align 8
  %60 = getelementptr inbounds nuw %struct.ParallelContext, ptr %59, i32 0, i32 2
  %61 = load i32, ptr %60, align 4
  %62 = icmp sgt i32 %61, 0
  br i1 %62, label %63, label %65

63:                                               ; preds = %58
  %64 = load ptr, ptr %8, align 8
  store ptr %64, ptr %6, align 8
  br label %65

65:                                               ; preds = %63, %58, %43
  %66 = load ptr, ptr %5, align 8
  %67 = getelementptr inbounds nuw %struct.ParallelBitmapHeapState, ptr %66, i32 0, i32 0
  store i64 0, ptr %67, align 8
  %68 = load ptr, ptr %5, align 8
  %69 = getelementptr inbounds nuw %struct.ParallelBitmapHeapState, ptr %68, i32 0, i32 1
  store i64 0, ptr %69, align 8
  br label %70

70:                                               ; preds = %65
  call void asm sideeffect "", "~{memory},~{dirflag},~{fpsr},~{flags}"() #8, !srcloc !4
  %71 = load ptr, ptr %5, align 8
  %72 = getelementptr inbounds nuw %struct.ParallelBitmapHeapState, ptr %71, i32 0, i32 2
  store i8 0, ptr %72, align 8
  br label %73

73:                                               ; preds = %70
  br label %74

74:                                               ; preds = %73
  %75 = load ptr, ptr %5, align 8
  %76 = getelementptr inbounds nuw %struct.ParallelBitmapHeapState, ptr %75, i32 0, i32 3
  store i32 0, ptr %76, align 4
  %77 = load ptr, ptr %5, align 8
  %78 = getelementptr inbounds nuw %struct.ParallelBitmapHeapState, ptr %77, i32 0, i32 4
  store i32 -1, ptr %78, align 8
  %79 = load ptr, ptr %5, align 8
  %80 = getelementptr inbounds nuw %struct.ParallelBitmapHeapState, ptr %79, i32 0, i32 5
  store i32 0, ptr %80, align 4
  %81 = load ptr, ptr %5, align 8
  %82 = getelementptr inbounds nuw %struct.ParallelBitmapHeapState, ptr %81, i32 0, i32 6
  call void @ConditionVariableInit(ptr noundef %82)
  %83 = load ptr, ptr %6, align 8
  %84 = icmp ne ptr %83, null
  br i1 %84, label %85, label %99

85:                                               ; preds = %74
  %86 = load ptr, ptr %4, align 8
  %87 = getelementptr inbounds nuw %struct.ParallelContext, ptr %86, i32 0, i32 2
  %88 = load i32, ptr %87, align 4
  %89 = load ptr, ptr %6, align 8
  %90 = getelementptr inbounds nuw %struct.SharedBitmapHeapInstrumentation, ptr %89, i32 0, i32 0
  store i32 %88, ptr %90, align 8
  %91 = load ptr, ptr %6, align 8
  %92 = getelementptr inbounds nuw %struct.SharedBitmapHeapInstrumentation, ptr %91, i32 0, i32 1
  %93 = getelementptr inbounds [0 x %struct.BitmapHeapScanInstrumentation], ptr %92, i64 0, i64 0
  %94 = load ptr, ptr %4, align 8
  %95 = getelementptr inbounds nuw %struct.ParallelContext, ptr %94, i32 0, i32 2
  %96 = load i32, ptr %95, align 4
  %97 = sext i32 %96 to i64
  %98 = mul i64 %97, 16
  call void @llvm.memset.p0.i64(ptr align 8 %93, i8 0, i64 %98, i1 false)
  br label %99

99:                                               ; preds = %85, %74
  %100 = load ptr, ptr %4, align 8
  %101 = getelementptr inbounds nuw %struct.ParallelContext, ptr %100, i32 0, i32 11
  %102 = load ptr, ptr %101, align 8
  %103 = load ptr, ptr %3, align 8
  %104 = getelementptr inbounds nuw %struct.BitmapHeapScanState, ptr %103, i32 0, i32 0
  %105 = getelementptr inbounds nuw %struct.ScanState, ptr %104, i32 0, i32 0
  %106 = getelementptr inbounds nuw %struct.PlanState, ptr %105, i32 0, i32 1
  %107 = load ptr, ptr %106, align 8
  %108 = getelementptr inbounds nuw %struct.Plan, ptr %107, i32 0, i32 9
  %109 = load i32, ptr %108, align 8
  %110 = sext i32 %109 to i64
  %111 = load ptr, ptr %5, align 8
  call void @shm_toc_insert(ptr noundef %102, i64 noundef %110, ptr noundef %111)
  %112 = load ptr, ptr %5, align 8
  %113 = load ptr, ptr %3, align 8
  %114 = getelementptr inbounds nuw %struct.BitmapHeapScanState, ptr %113, i32 0, i32 10
  store ptr %112, ptr %114, align 8
  %115 = load ptr, ptr %6, align 8
  %116 = load ptr, ptr %3, align 8
  %117 = getelementptr inbounds nuw %struct.BitmapHeapScanState, ptr %116, i32 0, i32 11
  store ptr %115, ptr %117, align 8
  store i32 0, ptr %10, align 4
  br label %118

118:                                              ; preds = %99, %20
  call void @llvm.lifetime.end.p0(i64 8, ptr %9) #8
  call void @llvm.lifetime.end.p0(i64 8, ptr %8) #8
  call void @llvm.lifetime.end.p0(i64 8, ptr %7) #8
  call void @llvm.lifetime.end.p0(i64 8, ptr %6) #8
  call void @llvm.lifetime.end.p0(i64 8, ptr %5) #8
  %119 = load i32, ptr %10, align 4
  switch i32 %119, label %121 [
    i32 0, label %120
    i32 1, label %120
  ]

120:                                              ; preds = %118, %118
  ret void

121:                                              ; preds = %118
  unreachable
}