; Function Attrs: nounwind uwtable
define dso_local void @ExecBitmapHeapInitializeDSM(ptr noundef captures(none) %0, ptr noundef readonly captures(none) %1) local_unnamed_addr #0 {
  %3 = getelementptr inbounds nuw i8, ptr %0, i64 16
  %4 = load ptr, ptr %3, align 8
  %5 = getelementptr inbounds nuw i8, ptr %4, i64 296
  %6 = load ptr, ptr %5, align 8
  %7 = icmp eq ptr %6, null
  br i1 %7, label %51, label %8

8:                                                ; preds = %2
  %9 = getelementptr inbounds nuw i8, ptr %0, i64 40
  %10 = load ptr, ptr %9, align 8
  %.not = icmp eq ptr %10, null
  br i1 %.not, label %21, label %11

11:                                               ; preds = %8
  %12 = getelementptr inbounds nuw i8, ptr %1, i64 20
  %13 = load i32, ptr %12, align 4
  %14 = icmp sgt i32 %13, 0
  br i1 %14, label %15, label %21

15:                                               ; preds = %11
  %16 = tail call i64 @add_size(i64 noundef 48, i64 noundef 8) #7
  %17 = load i32, ptr %12, align 4
  %18 = sext i32 %17 to i64
  %19 = tail call i64 @mul_size(i64 noundef %18, i64 noundef 16) #7
  %20 = tail call i64 @add_size(i64 noundef %16, i64 noundef %19) #7
  br label %21

21:                                               ; preds = %15, %11, %8
  %.0 = phi i64 [ %20, %15 ], [ 48, %11 ], [ 48, %8 ]
  %22 = getelementptr inbounds nuw i8, ptr %1, i64 88
  %23 = load ptr, ptr %22, align 8
  %24 = tail call ptr @shm_toc_allocate(ptr noundef %23, i64 noundef %.0) #7
  %25 = load ptr, ptr %9, align 8
  %.not33 = icmp eq ptr %25, null
  br i1 %.not33, label %select.unfold, label %26

26:                                               ; preds = %21
  %27 = getelementptr inbounds nuw i8, ptr %24, i64 48
  %28 = getelementptr inbounds nuw i8, ptr %1, i64 20
  %29 = load i32, ptr %28, align 4
  %30 = icmp sgt i32 %29, 0
  %spec.select = select i1 %30, ptr %27, ptr null
  br label %select.unfold

select.unfold:                                    ; preds = %26, %21
  %.032 = phi ptr [ null, %21 ], [ %spec.select, %26 ]
  tail call void @llvm.memset.p0.i64(ptr noundef nonnull align 8 dereferenceable(16) %24, i8 0, i64 16, i1 false)
  tail call void asm sideeffect "", "~{memory},~{dirflag},~{fpsr},~{flags}"() #7, !srcloc !4
  %31 = getelementptr inbounds nuw i8, ptr %24, i64 16
  store i8 0, ptr %31, align 8
  %32 = getelementptr inbounds nuw i8, ptr %24, i64 20
  store i32 0, ptr %32, align 4
  %33 = getelementptr inbounds nuw i8, ptr %24, i64 24
  store i32 -1, ptr %33, align 8
  %34 = getelementptr inbounds nuw i8, ptr %24, i64 28
  store i32 0, ptr %34, align 4
  %35 = getelementptr inbounds nuw i8, ptr %24, i64 32
  tail call void @ConditionVariableInit(ptr noundef nonnull %35) #7
  %.not34 = icmp eq ptr %.032, null
  br i1 %.not34, label %42, label %36

36:                                               ; preds = %select.unfold
  %37 = getelementptr inbounds nuw i8, ptr %1, i64 20
  %38 = load i32, ptr %37, align 4
  store i32 %38, ptr %.032, align 8
  %39 = getelementptr inbounds nuw i8, ptr %.032, i64 8
  %40 = sext i32 %38 to i64
  %41 = shl nsw i64 %40, 4
  tail call void @llvm.memset.p0.i64(ptr nonnull align 8 %39, i8 0, i64 %41, i1 false)
  br label %42

42:                                               ; preds = %36, %select.unfold
  %43 = load ptr, ptr %22, align 8
  %44 = getelementptr inbounds nuw i8, ptr %0, i64 8
  %45 = load ptr, ptr %44, align 8
  %46 = getelementptr inbounds nuw i8, ptr %45, i64 40
  %47 = load i32, ptr %46, align 8
  %48 = sext i32 %47 to i64
  tail call void @shm_toc_insert(ptr noundef %43, i64 noundef %48, ptr noundef nonnull %24) #7
  %49 = getelementptr inbounds nuw i8, ptr %0, i64 296
  store ptr %24, ptr %49, align 8
  %50 = getelementptr inbounds nuw i8, ptr %0, i64 304
  store ptr %.032, ptr %50, align 8
  br label %51

51:                                               ; preds = %2, %42
  ret void
}